target datalayout = "e-m:e-p270:32:32-p271:32:32-p272:64:64-i64:64-i128:128-f80:128-n8:16:32:64-S128"
target triple = "x86_64-pc-linux-gnu"

%struct.strview_t = type { ptr, i64 }
%struct.GVC_s = type { %struct.GVCOMMON_s, ptr, i8, ptr, i32, ptr, ptr, [5 x ptr], [5 x ptr], ptr, ptr, %struct.dtdisc_s_, ptr, %struct.gvplugin_active_textlayout_s, ptr, ptr, ptr, %struct.gvplugin_active_layout_s, ptr, ptr, ptr, %struct.pointf_s, %struct.pointf_s, %struct.pointf_s, %struct.point, %struct.boxf, i32, i8, i8, i8, ptr, ptr, ptr, ptr, i32, ptr, ptr, double, ptr, %struct.color_s, i32 }
%struct.GVCOMMON_s = type { ptr, ptr, i32, i8, i8, ptr, ptr, ptr, i32, ptr, i32 }
%struct.dtdisc_s_ = type { i32, i32, i32, ptr, ptr, ptr }
%struct.gvplugin_active_textlayout_s = type { ptr, i32, ptr }
%struct.gvplugin_active_layout_s = type { ptr, i32, ptr, ptr }
%struct.pointf_s = type { double, double }
%struct.point = type { i32, i32 }
%struct.boxf = type { %struct.pointf_s, %struct.pointf_s }
%struct.color_s = type { %union.anon, i32 }
%union.anon = type { [4 x double] }
%struct.gvplugin_available_s = type { ptr, ptr, i32, ptr, ptr }

@stderr = external global ptr, align 8
@.str.74 = private unnamed_addr constant [58 x i8] c"integer overflow when trying to allocate %zu * %zu bytes\0A\00", align 1
@.str.75 = private unnamed_addr constant [49 x i8] c"out of memory when trying to allocate %zu bytes\0A\00", align 1

; Function Attrs: inlinehint nounwind uwtable
define internal ptr @gv_calloc(i64 noundef %0, i64 noundef %1) #4 {
  %3 = alloca i64, align 8
  %4 = alloca i64, align 8
  %5 = alloca ptr, align 8
  store i64 %0, ptr %3, align 8, !tbaa !8
  store i64 %1, ptr %4, align 8, !tbaa !8
  %6 = load i64, ptr %3, align 8, !tbaa !8
  %7 = icmp ugt i64 %6, 0
  br i1 %7, label %8, label %18

8:                                                ; preds = %2
  %9 = load i64, ptr %3, align 8, !tbaa !8
  %10 = udiv i64 -1, %9
  %11 = load i64, ptr %4, align 8, !tbaa !8
  %12 = icmp ult i64 %10, %11
  br i1 %12, label %13, label %18

13:                                               ; preds = %8
  %14 = load ptr, ptr @stderr, align 8, !tbaa !58
  %15 = load i64, ptr %3, align 8, !tbaa !8
  %16 = load i64, ptr %4, align 8, !tbaa !8
  %17 = call i32 (ptr, ptr, ...) @fprintf(ptr noundef %14, ptr noundef @.str.74, i64 noundef %15, i64 noundef %16) #13
  call void @graphviz_exit(i32 noundef 1) #15
  unreachable

18:                                               ; preds = %8, %2
  call void @llvm.lifetime.start.p0(i64 8, ptr %5) #13
  %19 = load i64, ptr %3, align 8, !tbaa !8
  %20 = load i64, ptr %4, align 8, !tbaa !8
  %21 = call noalias ptr @calloc(i64 noundef %19, i64 noundef %20) #16
  store ptr %21, ptr %5, align 8, !tbaa !18
  %22 = load i64, ptr %3, align 8, !tbaa !8
  %23 = icmp ugt i64 %22, 0
  br i1 %23, label %24, label %36

24:                                               ; preds = %18
  %25 = load i64, ptr %4, align 8, !tbaa !8
  %26 = icmp ugt i64 %25, 0
  br i1 %26, label %27, label %36

27:                                               ; preds = %24
  %28 = load ptr, ptr %5, align 8, !tbaa !18
  %29 = icmp eq ptr %28, null
  br i1 %29, label %30, label %36

30:                                               ; preds = %27
  %31 = load ptr, ptr @stderr, align 8, !tbaa !58
  %32 = load i64, ptr %3, align 8, !tbaa !8
  %33 = load i64, ptr %4, align 8, !tbaa !8
  %34 = mul i64 %32, %33
  %35 = call i32 (ptr, ptr, ...) @fprintf(ptr noundef %31, ptr noundef @.str.75, i64 noundef %34) #13
  call void @graphviz_exit(i32 noundef 1) #15
  unreachable

36:                                               ; preds = %27, %24, %18
  %37 = load ptr, ptr %5, align 8, !tbaa !18
  call void @llvm.lifetime.end.p0(i64 8, ptr %5) #13
  ret ptr %37
}

; Function Attrs: inlinehint nounwind uwtable
define internal ptr @gv_alloc(i64 noundef %0) #4 {
  %2 = alloca i64, align 8
  store i64 %0, ptr %2, align 8, !tbaa !8
  %3 = load i64, ptr %2, align 8, !tbaa !8
  %4 = call ptr @gv_calloc(i64 noundef 1, i64 noundef %3)
  ret ptr %4
}

; Function Attrs: inlinehint nounwind uwtable
define internal zeroext i1 @strview_eq(ptr %0, i64 %1, ptr %2, i64 %3) #4 {
  %5 = alloca %struct.strview_t, align 8
  %6 = alloca %struct.strview_t, align 8
  %7 = getelementptr inbounds nuw { ptr, i64 }, ptr %5, i32 0, i32 0
  store ptr %0, ptr %7, align 8
  %8 = getelementptr inbounds nuw { ptr, i64 }, ptr %5, i32 0, i32 1
  store i64 %1, ptr %8, align 8
  %9 = getelementptr inbounds nuw { ptr, i64 }, ptr %6, i32 0, i32 0
  store ptr %2, ptr %9, align 8
  %10 = getelementptr inbounds nuw { ptr, i64 }, ptr %6, i32 0, i32 1
  store i64 %3, ptr %10, align 8
  %11 = getelementptr inbounds nuw { ptr, i64 }, ptr %5, i32 0, i32 0
  %12 = load ptr, ptr %11, align 8
  %13 = getelementptr inbounds nuw { ptr, i64 }, ptr %5, i32 0, i32 1
  %14 = load i64, ptr %13, align 8
  %15 = getelementptr inbounds nuw { ptr, i64 }, ptr %6, i32 0, i32 0
  %16 = load ptr, ptr %15, align 8
  %17 = getelementptr inbounds nuw { ptr, i64 }, ptr %6, i32 0, i32 1
  %18 = load i64, ptr %17, align 8
  %19 = call i32 @strview_cmp(ptr %12, i64 %14, ptr %16, i64 %18)
  %20 = icmp eq i32 %19, 0
  ret i1 %20
}

; Function Attrs: inlinehint nounwind uwtable
define internal i32 @strview_cmp(ptr %0, i64 %1, ptr %2, i64 %3) #4 {
  %5 = alloca i32, align 4
  %6 = alloca %struct.strview_t, align 8
  %7 = alloca %struct.strview_t, align 8
  %8 = alloca i64, align 8
  %9 = alloca i32, align 4
  %10 = alloca i32, align 4
  %11 = getelementptr inbounds nuw { ptr, i64 }, ptr %6, i32 0, i32 0
  store ptr %0, ptr %11, align 8
  %12 = getelementptr inbounds nuw { ptr, i64 }, ptr %6, i32 0, i32 1
  store i64 %1, ptr %12, align 8
  %13 = getelementptr inbounds nuw { ptr, i64 }, ptr %7, i32 0, i32 0
  store ptr %2, ptr %13, align 8
  %14 = getelementptr inbounds nuw { ptr, i64 }, ptr %7, i32 0, i32 1
  store i64 %3, ptr %14, align 8
  call void @llvm.lifetime.start.p0(i64 8, ptr %8) #13
  %15 = getelementptr inbounds nuw %struct.strview_t, ptr %6, i32 0, i32 1
  %16 = load i64, ptr %15, align 8, !tbaa !34
  %17 = getelementptr inbounds nuw %struct.strview_t, ptr %7, i32 0, i32 1
  %18 = load i64, ptr %17, align 8, !tbaa !34
  %19 = icmp ugt i64 %16, %18
  br i1 %19, label %20, label %23

20:                                               ; preds = %4
  %21 = getelementptr inbounds nuw %struct.strview_t, ptr %7, i32 0, i32 1
  %22 = load i64, ptr %21, align 8, !tbaa !34
  br label %26

23:                                               ; preds = %4
  %24 = getelementptr inbounds nuw %struct.strview_t, ptr %6, i32 0, i32 1
  %25 = load i64, ptr %24, align 8, !tbaa !34
  br label %26

26:                                               ; preds = %23, %20
  %27 = phi i64 [ %22, %20 ], [ %25, %23 ]
  store i64 %27, ptr %8, align 8, !tbaa !8
  call void @llvm.lifetime.start.p0(i64 4, ptr %9) #13
  %28 = getelementptr inbounds nuw %struct.strview_t, ptr %6, i32 0, i32 0
  %29 = load ptr, ptr %28, align 8, !tbaa !32
  %30 = getelementptr inbounds nuw %struct.strview_t, ptr %7, i32 0, i32 0
  %31 = load ptr, ptr %30, align 8, !tbaa !32
  %32 = load i64, ptr %8, align 8, !tbaa !8
  %33 = call i32 @strncmp(ptr noundef %29, ptr noundef %31, i64 noundef %32) #14
  store i32 %33, ptr %9, align 4, !tbaa !12
  %34 = load i32, ptr %9, align 4, !tbaa !12
  %35 = icmp ne i32 %34, 0
  br i1 %35, label %36, label %38

36:                                               ; preds = %26
  %37 = load i32, ptr %9, align 4, !tbaa !12
  store i32 %37, ptr %5, align 4
  store i32 1, ptr %10, align 4
  br label %53

38:                                               ; preds = %26
  %39 = getelementptr inbounds nuw %struct.strview_t, ptr %6, i32 0, i32 1
  %40 = load i64, ptr %39, align 8, !tbaa !34
  %41 = getelementptr inbounds nuw %struct.strview_t, ptr %7, i32 0, i32 1
  %42 = load i64, ptr %41, align 8, !tbaa !34
  %43 = icmp ugt i64 %40, %42
  br i1 %43, label %44, label %45

44:                                               ; preds = %38
  store i32 1, ptr %5, align 4
  store i32 1, ptr %10, align 4
  br label %53

45:                                               ; preds = %38
  %46 = getelementptr inbounds nuw %struct.strview_t, ptr %6, i32 0, i32 1
  %47 = load i64, ptr %46, align 8, !tbaa !34
  %48 = getelementptr inbounds nuw %struct.strview_t, ptr %7, i32 0, i32 1
  %49 = load i64, ptr %48, align 8, !tbaa !34
  %50 = icmp ult i64 %47, %49
  br i1 %50, label %51, label %52

51:                                               ; preds = %45
  store i32 -1, ptr %5, align 4
  store i32 1, ptr %10, align 4
  br label %53

52:                                               ; preds = %45
  store i32 0, ptr %5, align 4
  store i32 1, ptr %10, align 4
  br label %53

53:                                               ; preds = %52, %51, %44, %36
  call void @llvm.lifetime.end.p0(i64 4, ptr %9) #13
  call void @llvm.lifetime.end.p0(i64 8, ptr %8) #13
  %54 = load i32, ptr %5, align 4
  ret i32 %54
}

; Function Attrs: inlinehint nounwind uwtable
define internal { ptr, i64 } @strview(ptr noundef %0, i8 noundef signext %1) #4 {
  %3 = alloca %struct.strview_t, align 8
  %4 = alloca ptr, align 8
  %5 = alloca i8, align 1
  %6 = alloca ptr, align 8
  %7 = alloca i32, align 4
  store ptr %0, ptr %4, align 8, !tbaa !3
  store i8 %1, ptr %5, align 1, !tbaa !31
  call void @llvm.lifetime.start.p0(i64 8, ptr %6) #13
  %8 = load ptr, ptr %4, align 8, !tbaa !3
  %9 = load i8, ptr %5, align 1, !tbaa !31
  %10 = sext i8 %9 to i32
  %11 = call ptr @strchr(ptr noundef %8, i32 noundef %10) #14
  store ptr %11, ptr %6, align 8, !tbaa !3
  %12 = load ptr, ptr %6, align 8, !tbaa !3
  %13 = icmp ne ptr %12, null
  br i1 %13, label %14, label %23

14:                                               ; preds = %2
  %15 = getelementptr inbounds nuw %struct.strview_t, ptr %3, i32 0, i32 0
  %16 = load ptr, ptr %4, align 8, !tbaa !3
  store ptr %16, ptr %15, align 8, !tbaa !32
  %17 = getelementptr inbounds nuw %struct.strview_t, ptr %3, i32 0, i32 1
  %18 = load ptr, ptr %6, align 8, !tbaa !3
  %19 = load ptr, ptr %4, align 8, !tbaa !3
  %20 = ptrtoint ptr %18 to i64
  %21 = ptrtoint ptr %19 to i64
  %22 = sub i64 %20, %21
  store i64 %22, ptr %17, align 8, !tbaa !34
  store i32 1, ptr %7, align 4
  br label %29

23:                                               ; preds = %2
  %24 = getelementptr inbounds nuw %struct.strview_t, ptr %3, i32 0, i32 0
  %25 = load ptr, ptr %4, align 8, !tbaa !3
  store ptr %25, ptr %24, align 8, !tbaa !32
  %26 = getelementptr inbounds nuw %struct.strview_t, ptr %3, i32 0, i32 1
  %27 = load ptr, ptr %4, align 8, !tbaa !3
  %28 = call i64 @strlen(ptr noundef %27) #14
  store i64 %28, ptr %26, align 8, !tbaa !34
  store i32 1, ptr %7, align 4
  br label %29

29:                                               ; preds = %23, %14
  call void @llvm.lifetime.end.p0(i64 8, ptr %6) #13
  %30 = load { ptr, i64 }, ptr %3, align 8
  ret { ptr, i64 } %30
}

; Function Attrs: nounwind uwtable
define zeroext i1 @gvplugin_install(ptr noundef %0, i32 noundef %1, ptr noundef %2, i32 noundef %3, ptr noundef %4, ptr noundef %5) #0 {
  %7 = alloca i1, align 1
  %8 = alloca ptr, align 8
  %9 = alloca i32, align 4
  %10 = alloca ptr, align 8
  %11 = alloca i32, align 4
  %12 = alloca ptr, align 8
  %13 = alloca ptr, align 8
  %14 = alloca ptr, align 8
  %15 = alloca ptr, align 8
  %16 = alloca ptr, align 8
  %17 = alloca i32, align 4
  %18 = alloca %struct.strview_t, align 8
  %19 = alloca %struct.strview_t, align 8
  %20 = alloca %struct.strview_t, align 8
  store ptr %0, ptr %8, align 8, !tbaa !14
  store i32 %1, ptr %9, align 4, !tbaa !12
  store ptr %2, ptr %10, align 8, !tbaa !3
  store i32 %3, ptr %11, align 4, !tbaa !12
  store ptr %4, ptr %12, align 8, !tbaa !16
  store ptr %5, ptr %13, align 8, !tbaa !18
  call void @llvm.lifetime.start.p0(i64 8, ptr %14) #13
  call void @llvm.lifetime.start.p0(i64 8, ptr %15) #13
  call void @llvm.lifetime.start.p0(i64 8, ptr %16) #13
  %21 = load ptr, ptr %10, align 8, !tbaa !3
  %22 = call noalias ptr @strdup(ptr noundef %21) #13
  store ptr %22, ptr %16, align 8, !tbaa !3
  %23 = load ptr, ptr %16, align 8, !tbaa !3
  %24 = icmp eq ptr %23, null
  br i1 %24, label %25, label %26

25:                                               ; preds = %6
  store i1 false, ptr %7, align 1
  store i32 1, ptr %17, align 4
  br label %130

26:                                               ; preds = %6
  call void @llvm.lifetime.start.p0(i64 16, ptr %18) #13
  %27 = load ptr, ptr %10, align 8, !tbaa !3
  %28 = call { ptr, i64 } @strview(ptr noundef %27, i8 noundef signext 58)
  %29 = getelementptr inbounds nuw { ptr, i64 }, ptr %18, i32 0, i32 0
  %30 = extractvalue { ptr, i64 } %28, 0
  store ptr %30, ptr %29, align 8
  %31 = getelementptr inbounds nuw { ptr, i64 }, ptr %18, i32 0, i32 1
  %32 = extractvalue { ptr, i64 } %28, 1
  store i64 %32, ptr %31, align 8
  %33 = load ptr, ptr %8, align 8, !tbaa !14
  %34 = getelementptr inbounds nuw %struct.GVC_s, ptr %33, i32 0, i32 7
  %35 = load i32, ptr %9, align 4, !tbaa !12
  %36 = zext i32 %35 to i64
  %37 = getelementptr inbounds nuw [5 x ptr], ptr %34, i64 0, i64 %36
  store ptr %37, ptr %15, align 8, !tbaa !19
  br label %38

38:                                               ; preds = %69, %26
  %39 = load ptr, ptr %15, align 8, !tbaa !19
  %40 = load ptr, ptr %39, align 8, !tbaa !21
  %41 = icmp ne ptr %40, null
  br i1 %41, label %42, label %70

42:                                               ; preds = %38
  call void @llvm.lifetime.start.p0(i64 16, ptr %19) #13
  %43 = load ptr, ptr %15, align 8, !tbaa !19
  %44 = load ptr, ptr %43, align 8, !tbaa !21
  %45 = getelementptr inbounds nuw %struct.gvplugin_available_s, ptr %44, i32 0, i32 1
  %46 = load ptr, ptr %45, align 8, !tbaa !23
  %47 = call { ptr, i64 } @strview(ptr noundef %46, i8 noundef signext 58)
  %48 = getelementptr inbounds nuw { ptr, i64 }, ptr %19, i32 0, i32 0
  %49 = extractvalue { ptr, i64 } %47, 0
  store ptr %49, ptr %48, align 8
  %50 = getelementptr inbounds nuw { ptr, i64 }, ptr %19, i32 0, i32 1
  %51 = extractvalue { ptr, i64 } %47, 1
  store i64 %51, ptr %50, align 8
  %52 = getelementptr inbounds nuw { ptr, i64 }, ptr %18, i32 0, i32 0
  %53 = load ptr, ptr %52, align 8
  %54 = getelementptr inbounds nuw { ptr, i64 }, ptr %18, i32 0, i32 1
  %55 = load i64, ptr %54, align 8
  %56 = getelementptr inbounds nuw { ptr, i64 }, ptr %19, i32 0, i32 0
  %57 = load ptr, ptr %56, align 8
  %58 = getelementptr inbounds nuw { ptr, i64 }, ptr %19, i32 0, i32 1
  %59 = load i64, ptr %58, align 8
  %60 = call i32 @strview_cmp(ptr %53, i64 %55, ptr %57, i64 %59)
  %61 = icmp sle i32 %60, 0
  br i1 %61, label %62, label %63

62:                                               ; preds = %42
  store i32 3, ptr %17, align 4
  br label %67

63:                                               ; preds = %42
  %64 = load ptr, ptr %15, align 8, !tbaa !19
  %65 = load ptr, ptr %64, align 8, !tbaa !21
  %66 = getelementptr inbounds nuw %struct.gvplugin_available_s, ptr %65, i32 0, i32 0
  store ptr %66, ptr %15, align 8, !tbaa !19
  store i32 0, ptr %17, align 4
  br label %67

67:                                               ; preds = %63, %62
  call void @llvm.lifetime.end.p0(i64 16, ptr %19) #13
  %68 = load i32, ptr %17, align 4
  switch i32 %68, label %132 [
    i32 0, label %69
    i32 3, label %70
  ]

69:                                               ; preds = %67
  br label %38, !llvm.loop !25

70:                                               ; preds = %67, %38
  br label %71

71:                                               ; preds = %109, %70
  %72 = load ptr, ptr %15, align 8, !tbaa !19
  %73 = load ptr, ptr %72, align 8, !tbaa !21
  %74 = icmp ne ptr %73, null
  br i1 %74, label %75, label %110

75:                                               ; preds = %71
  call void @llvm.lifetime.start.p0(i64 16, ptr %20) #13
  %76 = load ptr, ptr %15, align 8, !tbaa !19
  %77 = load ptr, ptr %76, align 8, !tbaa !21
  %78 = getelementptr inbounds nuw %struct.gvplugin_available_s, ptr %77, i32 0, i32 1
  %79 = load ptr, ptr %78, align 8, !tbaa !23
  %80 = call { ptr, i64 } @strview(ptr noundef %79, i8 noundef signext 58)
  %81 = getelementptr inbounds nuw { ptr, i64 }, ptr %20, i32 0, i32 0
  %82 = extractvalue { ptr, i64 } %80, 0
  store ptr %82, ptr %81, align 8
  %83 = getelementptr inbounds nuw { ptr, i64 }, ptr %20, i32 0, i32 1
  %84 = extractvalue { ptr, i64 } %80, 1
  store i64 %84, ptr %83, align 8
  %85 = getelementptr inbounds nuw { ptr, i64 }, ptr %18, i32 0, i32 0
  %86 = load ptr, ptr %85, align 8
  %87 = getelementptr inbounds nuw { ptr, i64 }, ptr %18, i32 0, i32 1
  %88 = load i64, ptr %87, align 8
  %89 = getelementptr inbounds nuw { ptr, i64 }, ptr %20, i32 0, i32 0
  %90 = load ptr, ptr %89, align 8
  %91 = getelementptr inbounds nuw { ptr, i64 }, ptr %20, i32 0, i32 1
  %92 = load i64, ptr %91, align 8
  %93 = call zeroext i1 @strview_eq(ptr %86, i64 %88, ptr %90, i64 %92)
  br i1 %93, label %95, label %94

94:                                               ; preds = %75
  store i32 5, ptr %17, align 4
  br label %107

95:                                               ; preds = %75
  %96 = load i32, ptr %11, align 4, !tbaa !12
  %97 = load ptr, ptr %15, align 8, !tbaa !19
  %98 = load ptr, ptr %97, align 8, !tbaa !21
  %99 = getelementptr inbounds nuw %struct.gvplugin_available_s, ptr %98, i32 0, i32 2
  %100 = load i32, ptr %99, align 8, !tbaa !26
  %101 = icmp sge i32 %96, %100
  br i1 %101, label %102, label %103

102:                                              ; preds = %95
  store i32 5, ptr %17, align 4
  br label %107

103:                                              ; preds = %95
  %104 = load ptr, ptr %15, align 8, !tbaa !19
  %105 = load ptr, ptr %104, align 8, !tbaa !21
  %106 = getelementptr inbounds nuw %struct.gvplugin_available_s, ptr %105, i32 0, i32 0
  store ptr %106, ptr %15, align 8, !tbaa !19
  store i32 0, ptr %17, align 4
  br label %107

107:                                              ; preds = %103, %102, %94
  call void @llvm.lifetime.end.p0(i64 16, ptr %20) #13
  %108 = load i32, ptr %17, align 4
  switch i32 %108, label %132 [
    i32 0, label %109
    i32 5, label %110
  ]

109:                                              ; preds = %107
  br label %71, !llvm.loop !27

110:                                              ; preds = %107, %71
  %111 = call ptr @gv_alloc(i64 noundef 40)
  store ptr %111, ptr %14, align 8, !tbaa !21
  %112 = load ptr, ptr %15, align 8, !tbaa !19
  %113 = load ptr, ptr %112, align 8, !tbaa !21
  %114 = load ptr, ptr %14, align 8, !tbaa !21
  %115 = getelementptr inbounds nuw %struct.gvplugin_available_s, ptr %114, i32 0, i32 0
  store ptr %113, ptr %115, align 8, !tbaa !28
  %116 = load ptr, ptr %14, align 8, !tbaa !21
  %117 = load ptr, ptr %15, align 8, !tbaa !19
  store ptr %116, ptr %117, align 8, !tbaa !21
  %118 = load ptr, ptr %16, align 8, !tbaa !3
  %119 = load ptr, ptr %14, align 8, !tbaa !21
  %120 = getelementptr inbounds nuw %struct.gvplugin_available_s, ptr %119, i32 0, i32 1
  store ptr %118, ptr %120, align 8, !tbaa !23
  %121 = load i32, ptr %11, align 4, !tbaa !12
  %122 = load ptr, ptr %14, align 8, !tbaa !21
  %123 = getelementptr inbounds nuw %struct.gvplugin_available_s, ptr %122, i32 0, i32 2
  store i32 %121, ptr %123, align 8, !tbaa !26
  %124 = load ptr, ptr %12, align 8, !tbaa !16
  %125 = load ptr, ptr %14, align 8, !tbaa !21
  %126 = getelementptr inbounds nuw %struct.gvplugin_available_s, ptr %125, i32 0, i32 3
  store ptr %124, ptr %126, align 8, !tbaa !29
  %127 = load ptr, ptr %13, align 8, !tbaa !18
  %128 = load ptr, ptr %14, align 8, !tbaa !21
  %129 = getelementptr inbounds nuw %struct.gvplugin_available_s, ptr %128, i32 0, i32 4
  store ptr %127, ptr %129, align 8, !tbaa !30
  store i1 true, ptr %7, align 1
  store i32 1, ptr %17, align 4
  call void @llvm.lifetime.end.p0(i64 16, ptr %18) #13
  br label %130

130:                                              ; preds = %110, %25
  call void @llvm.lifetime.end.p0(i64 8, ptr %16) #13
  call void @llvm.lifetime.end.p0(i64 8, ptr %15) #13
  call void @llvm.lifetime.end.p0(i64 8, ptr %14) #13
  %131 = load i1, ptr %7, align 1
  ret i1 %131

132:                                              ; preds = %107, %67
  unreachable
}