; Function Attrs: nofree nounwind uwtable
define noundef zeroext i1 @gvplugin_install(ptr noundef captures(none) %0, i32 noundef %1, ptr noundef %2, i32 noundef %3, ptr noundef %4, ptr noundef %5) local_unnamed_addr #4 {
  %7 = tail call noalias ptr @strdup(ptr noundef %2) #25
  %8 = icmp ne ptr %7, null
  br i1 %8, label %9, label %63

9:                                                ; preds = %6
  %10 = tail call ptr @strchr(ptr noundef nonnull dereferenceable(1) %2, i32 noundef 58) #24
  %.not.i = icmp eq ptr %10, null
  br i1 %.not.i, label %15, label %11

11:                                               ; preds = %9
  %12 = ptrtoint ptr %10 to i64
  %13 = ptrtoint ptr %2 to i64
  %14 = sub i64 %12, %13
  br label %strview.exit

15:                                               ; preds = %9
  %16 = tail call i64 @strlen(ptr noundef nonnull dereferenceable(1) %2) #24
  br label %strview.exit

strview.exit:                                     ; preds = %11, %15
  %.sroa.3.0.i = phi i64 [ %14, %11 ], [ %16, %15 ]
  %17 = getelementptr inbounds nuw i8, ptr %0, i64 120
  %18 = zext i32 %1 to i64
  %19 = getelementptr inbounds nuw [5 x ptr], ptr %17, i64 0, i64 %18
  %20 = load ptr, ptr %19, align 8, !tbaa !10
  %.not64 = icmp eq ptr %20, null
  br i1 %.not64, label %.thread.preheader, label %.lr.ph

.lr.ph:                                           ; preds = %strview.exit, %strview_cmp.exit.thread54
  %21 = phi ptr [ %36, %strview_cmp.exit.thread54 ], [ %20, %strview.exit ]
  %.03265 = phi ptr [ %21, %strview_cmp.exit.thread54 ], [ %19, %strview.exit ]
  %22 = getelementptr inbounds nuw i8, ptr %21, i64 8
  %23 = load ptr, ptr %22, align 8, !tbaa !12
  %24 = tail call ptr @strchr(ptr noundef nonnull dereferenceable(1) %23, i32 noundef 58) #24
  %.not.i42 = icmp eq ptr %24, null
  br i1 %.not.i42, label %29, label %25

25:                                               ; preds = %.lr.ph
  %26 = ptrtoint ptr %24 to i64
  %27 = ptrtoint ptr %23 to i64
  %28 = sub i64 %26, %27
  br label %strview.exit46

29:                                               ; preds = %.lr.ph
  %30 = tail call i64 @strlen(ptr noundef nonnull dereferenceable(1) %23) #24
  br label %strview.exit46

strview.exit46:                                   ; preds = %25, %29
  %.sroa.3.0.i43 = phi i64 [ %28, %25 ], [ %30, %29 ]
  %31 = tail call i64 @llvm.umin.i64(i64 %.sroa.3.0.i, i64 %.sroa.3.0.i43)
  %32 = tail call i32 @strncmp(ptr noundef nonnull readonly %2, ptr noundef nonnull readonly %23, i64 noundef %31) #24
  %.not.i47 = icmp eq i32 %32, 0
  br i1 %.not.i47, label %33, label %strview_cmp.exit

33:                                               ; preds = %strview.exit46
  %34 = icmp ugt i64 %.sroa.3.0.i, %.sroa.3.0.i43
  br i1 %34, label %strview_cmp.exit.thread54, label %.thread.preheader

strview_cmp.exit:                                 ; preds = %strview.exit46
  %35 = icmp slt i32 %32, 1
  br i1 %35, label %.thread.preheader, label %strview_cmp.exit.thread54

strview_cmp.exit.thread54:                        ; preds = %33, %strview_cmp.exit
  %36 = load ptr, ptr %21, align 8, !tbaa !10
  %.not = icmp eq ptr %36, null
  br i1 %.not, label %.thread.preheader, label %.lr.ph

.thread.preheader:                                ; preds = %strview_cmp.exit.thread54, %strview_cmp.exit, %33, %strview.exit
  %.3.ph = phi ptr [ %19, %strview.exit ], [ %21, %strview_cmp.exit.thread54 ], [ %.03265, %strview_cmp.exit ], [ %.03265, %33 ]
  br label %.thread

.thread:                                          ; preds = %.thread.preheader, %51
  %.3 = phi ptr [ %37, %51 ], [ %.3.ph, %.thread.preheader ]
  %37 = load ptr, ptr %.3, align 8, !tbaa !10
  %.not38 = icmp eq ptr %37, null
  br i1 %.not38, label %.thread60, label %38

38:                                               ; preds = %.thread
  %39 = getelementptr inbounds nuw i8, ptr %37, i64 8
  %40 = load ptr, ptr %39, align 8, !tbaa !12
  %41 = tail call ptr @strchr(ptr noundef nonnull dereferenceable(1) %40, i32 noundef 58) #24
  %.not.i48 = icmp eq ptr %41, null
  br i1 %.not.i48, label %46, label %42

42:                                               ; preds = %38
  %43 = ptrtoint ptr %41 to i64
  %44 = ptrtoint ptr %40 to i64
  %45 = sub i64 %43, %44
  br label %strview.exit52

46:                                               ; preds = %38
  %47 = tail call i64 @strlen(ptr noundef nonnull dereferenceable(1) %40) #24
  br label %strview.exit52

strview.exit52:                                   ; preds = %42, %46
  %.sroa.3.0.i49 = phi i64 [ %45, %42 ], [ %47, %46 ]
  %48 = tail call i64 @llvm.umin.i64(i64 %.sroa.3.0.i, i64 %.sroa.3.0.i49)
  %49 = tail call i32 @strncmp(ptr noundef nonnull readonly %2, ptr noundef nonnull readonly %40, i64 noundef %48) #24
  %.not.i.i = icmp eq i32 %49, 0
  %50 = icmp eq i64 %.sroa.3.0.i, %.sroa.3.0.i49
  %spec.select.i = and i1 %50, %.not.i.i
  br i1 %spec.select.i, label %51, label %.thread60

51:                                               ; preds = %strview.exit52
  %52 = getelementptr inbounds nuw i8, ptr %37, i64 16
  %53 = load i32, ptr %52, align 8, !tbaa !16
  %.not39 = icmp slt i32 %3, %53
  br i1 %.not39, label %.thread, label %.thread60

.thread60:                                        ; preds = %51, %strview.exit52, %.thread
  %54 = tail call noalias dereferenceable_or_null(40) ptr @calloc(i64 noundef 1, i64 noundef 40) #26
  %55 = icmp eq ptr %54, null
  br i1 %55, label %56, label %gv_alloc.exit

56:                                               ; preds = %.thread60
  %57 = load ptr, ptr @stderr, align 8, !tbaa !17
  %58 = tail call i32 (ptr, ptr, ...) @fprintf(ptr noundef %57, ptr noundef nonnull @.str.75, i64 noundef 40) #27
  tail call fastcc void @graphviz_exit() #28
  unreachable

gv_alloc.exit:                                    ; preds = %.thread60
  store ptr %37, ptr %54, align 8, !tbaa !19
  store ptr %54, ptr %.3, align 8, !tbaa !10
  %59 = getelementptr inbounds nuw i8, ptr %54, i64 8
  store ptr %7, ptr %59, align 8, !tbaa !12
  %60 = getelementptr inbounds nuw i8, ptr %54, i64 16
  store i32 %3, ptr %60, align 8, !tbaa !16
  %61 = getelementptr inbounds nuw i8, ptr %54, i64 24
  store ptr %4, ptr %61, align 8, !tbaa !20
  %62 = getelementptr inbounds nuw i8, ptr %54, i64 32
  store ptr %5, ptr %62, align 8, !tbaa !21
  br label %63

63:                                               ; preds = %6, %gv_alloc.exit
  ret i1 %8
}